target datalayout = "e-m:e-p270:32:32-p271:32:32-p272:64:64-i64:64-i128:128-f80:128-n8:16:32:64-S128"
target triple = "x86_64-pc-linux-gnu"

@proto_register_moldudp.ett = internal global [2 x ptr] [ptr @ett_moldudp, ptr @ett_moldudp_msgblk], align 16
@.str.24 = private unnamed_addr constant [8 x i8] c"MoldUDP\00", align 1
@.str.25 = private unnamed_addr constant [8 x i8] c"moldudp\00", align 1
@proto_moldudp = internal global i32 0, align 4
@.str.26 = private unnamed_addr constant [16 x i8] c"moldudp.payload\00", align 1
@.str.27 = private unnamed_addr constant [16 x i8] c"MoldUDP Payload\00", align 1
@moldudp_payload_table = internal global ptr null, align 8
@moldudp_handle = internal global ptr null, align 8

; Function Attrs: null_pointer_is_valid sspstrong uwtable
define hidden void @proto_register_moldudp() #0 {
  %1 = alloca ptr, align 8
  call void @llvm.lifetime.start.p0(i64 8, ptr %1) #5
  %2 = call i32 @proto_register_protocol(ptr noundef @.str.24, ptr noundef @.str.24, ptr noundef @.str.25)
  store i32 %2, ptr @proto_moldudp, align 4
  %3 = load i32, ptr @proto_moldudp, align 4
  call void @proto_register_field_array(i32 noundef %3, ptr noundef @proto_register_moldudp.hf, i32 noundef 7)
  call void @proto_register_subtree_array(ptr noundef @proto_register_moldudp.ett, i32 noundef 2)
  %4 = load i32, ptr @proto_moldudp, align 4
  %5 = call ptr @expert_register_protocol(i32 noundef %4)
  store ptr %5, ptr %1, align 8
  %6 = load ptr, ptr %1, align 8
  call void @expert_register_field_array(ptr noundef %6, ptr noundef @proto_register_moldudp.ei, i32 noundef 2)
  %7 = load i32, ptr @proto_moldudp, align 4
  %8 = call ptr @register_decode_as_next_proto(i32 noundef %7, ptr noundef @.str.26, ptr noundef @.str.27, ptr noundef @moldudp_prompt)
  store ptr %8, ptr @moldudp_payload_table, align 8
  %9 = load i32, ptr @proto_moldudp, align 4
  %10 = call ptr @register_dissector(ptr noundef @.str.25, ptr noundef @dissect_moldudp, i32 noundef %9)
  store ptr %10, ptr @moldudp_handle, align 8
  call void @llvm.lifetime.end.p0(i64 8, ptr %1) #5
  ret void
}