; Function Attrs: null_pointer_is_valid sspstrong uwtable
define hidden void @proto_register_moldudp() local_unnamed_addr #0 {
  %1 = tail call i32 @proto_register_protocol(ptr noundef nonnull @.str.24, ptr noundef nonnull @.str.24, ptr noundef nonnull @.str.25)
  store i32 %1, ptr @proto_moldudp, align 4
  tail call void @proto_register_field_array(i32 noundef %1, ptr noundef nonnull @proto_register_moldudp.hf, i32 noundef 7)
  tail call void @proto_register_subtree_array(ptr noundef nonnull @proto_register_moldudp.ett, i32 noundef 2)
  %2 = load i32, ptr @proto_moldudp, align 4
  %3 = tail call ptr @expert_register_protocol(i32 noundef %2)
  tail call void @expert_register_field_array(ptr noundef %3, ptr noundef nonnull @proto_register_moldudp.ei, i32 noundef 2)
  %4 = load i32, ptr @proto_moldudp, align 4
  %5 = tail call ptr @register_decode_as_next_proto(i32 noundef %4, ptr noundef nonnull @.str.26, ptr noundef nonnull @.str.27, ptr noundef nonnull @moldudp_prompt)
  store ptr %5, ptr @moldudp_payload_table, align 8
  %6 = load i32, ptr @proto_moldudp, align 4
  %7 = tail call ptr @register_dissector(ptr noundef nonnull @.str.25, ptr noundef nonnull @dissect_moldudp, i32 noundef %6)
  store ptr %7, ptr @moldudp_handle, align 8
  ret void
}